(lp0
S'http://nycbigapps.com/project/356/Life-n-brand'
p1
aS'http://nycbigapps.com/project/104/Jobs-Nearby-connecting-job-seekers-with-local-businesses-that-are-hiring-via-mobile-devices'
p2
aS'http://nycbigapps.com/project/108/Zoner-is-feasibility-study-made-easy.-www.zonerapp.com'
p3
aS'http://nycbigapps.com/project/110/Socratic-Web'
p4
aS'http://nycbigapps.com/project/111/Zeitfenster-New-York-Time-Travel-App'
p5
aS'http://nycbigapps.com/project/113/MESA-The-Massive-Evacuation-Simulation-Application'
p6
aS'http://nycbigapps.com/project/115/Animal-Finder'
p7
aS'http://nycbigapps.com/project/118/MintScraps-Minimize-Waste.-Maximize-Profit'
p8
aS'http://nycbigapps.com/project/119/Smarter-travel-for-New-Yorkers'
p9
aS'http://nycbigapps.com/project/120/NYC-Traffic-Noise-API'
p10
aS'http://nycbigapps.com/project/124/Subway-exit-pin-placer-sidewalk-compass-rose-app'
p11
aS'http://nycbigapps.com/project/125/One-Foot-In'
p12
aS'http://nycbigapps.com/project/126/Healthy-Food-Compass'
p13
aS'http://nycbigapps.com/project/127/City-Whispers'
p14
aS'http://nycbigapps.com/project/128/LocalSqr-Healthy-local-food-made-simple'
p15
aS'http://nycbigapps.com/project/129/Radius-environment-made-social'
p16
aS'http://nycbigapps.com/project/132/Where-Can-I-Throw-This-Find-Your-Nearest-Composter'
p17
aS'http://nycbigapps.com/project/133/UGov-how-can-government-help-you'
p18
aS'http://nycbigapps.com/project/134/Skill-Me-Up'
p19
aS'http://nycbigapps.com/project/135/Disaster-Simulator'
p20
aS'http://nycbigapps.com/project/136/Hack-For-A-platform-to-make-hackathons-work-for-real-world-problems'
p21
aS'http://nycbigapps.com/project/139/Democracy-Made-for-New-Yorkers-DMNY'
p22
aS'http://nycbigapps.com/project/140/The-right-student-for-the-right-Internshipjob-for-the-right-company'
p23
aS'http://nycbigapps.com/project/141/NYC-Big-Data-Smart-Grid'
p24
aS'http://nycbigapps.com/project/142/OkCupid-for-Your-Career'
p25
aS'http://nycbigapps.com/project/143/Ad-Patrol'
p26
aS'http://nycbigapps.com/project/144/NYC-Biketrain'
p27
aS'http://nycbigapps.com/project/150/City-Stories'
p28
aS'http://nycbigapps.com/project/151/Child-Care-Desk-Find-Quality-Child-Care-near-you'
p29
aS'http://nycbigapps.com/project/164/SolarList.-An-app-that-empowers-and-pays-students-and-young-entrepreneurs-to-educate-homeowners-about-their-options-for-going-solar-by-providing-free-home-solar-assessments'
p30
aS'http://nycbigapps.com/project/165/Urban-Poultry-Farming-App'
p31
aS'http://nycbigapps.com/project/166/MART-IT-An-app-based-participatory-art-experience'
p32
aS'http://nycbigapps.com/project/169/NYC-Adventuretime'
p33
aS'http://nycbigapps.com/project/174/Scaffold-wealth-management-for-everyone'
p34
aS'http://nycbigapps.com/project/175/Applied.at'
p35
aS'http://nycbigapps.com/project/176/5Jobs.us-easy-steps-for-young-entrepreneurs-to-start-own-business'
p36
aS'http://nycbigapps.com/project/177/NYC-Social-Travel-Traffic-NOAA-All-In-1'
p37
aS'http://nycbigapps.com/project/178/Helping-Hands-Putting-Hope-Within-Reach'
p38
aS'http://nycbigapps.com/project/179/MakeItHappen'
p39
aS'http://nycbigapps.com/project/180/BlinkJobs-Trust-Your-Instincts'
p40
aS'http://nycbigapps.com/project/181/GovSee-Surf-the-New-York-City-Government'
p41
aS'http://nycbigapps.com/project/184/NYC-15x15'
p42
aS'http://nycbigapps.com/project/186/Crowdsourcing-Casting-Solution'
p43
aS'http://nycbigapps.com/project/188/eCruit'
p44
aS'http://nycbigapps.com/project/191/Get-Real-Coding-Experience-with-Social-Good-Projects'
p45
aS'http://nycbigapps.com/project/192/Parent-Teacher-Partnership-PTP'
p46
aS'http://nycbigapps.com/project/193/Climafy-App-for-Homeowners-to-Make-Their-Houses-Green'
p47
aS'http://nycbigapps.com/project/199/A-blue-collar-job-board-for-NYs-tradesmen-and-women'
p48
aS'http://nycbigapps.com/project/202/Feelback'
p49
aS'http://nycbigapps.com/project/204/Breathe-In-The-Bronx'
p50
aS'http://nycbigapps.com/project/205/Bike-Safe-NYC'
p51
aS'http://nycbigapps.com/project/207/SNAP_NYC'
p52
aS'http://nycbigapps.com/project/209/Activore-Local-Venue-based-Communities-of-Support-for-Fitness'
p53
aS'http://nycbigapps.com/project/210/BoocGoer-track-bestsellers'
p54
aS'http://nycbigapps.com/project/211/Healthy-Living-The-Street-wise-NYC-Edition'
p55
aS'http://nycbigapps.com/project/212/Salmon-Dont-just-get-there'
p56
aS'http://nycbigapps.com/project/213/CUNY-Bound'
p57
aS'http://nycbigapps.com/project/214/HeartyStat'
p58
aS'http://nycbigapps.com/project/215/Pavlov-Health'
p59
aS'http://nycbigapps.com/project/216/Bike-Safe-NYC-2'
p60
aS'http://nycbigapps.com/project/217/HBux-Helping-New-Yorkers-Eat-Healthy'
p61
aS'http://nycbigapps.com/project/218/NomNom-Style'
p62
aS'http://nycbigapps.com/project/219/LearnTogether-Online-Study-Groups-for-MOOCs-Massive-Open-Online-Courses'
p63
aS'http://nycbigapps.com/project/220/A-better-way-to-share-organize-and-discuss-online-news-articles'
p64
aS'http://nycbigapps.com/project/222/Healthy-Living'
p65
aS'http://nycbigapps.com/project/224/Mobile-Disaster-Relief-App'
p66
aS'http://nycbigapps.com/project/225/Emergency-Service-Locator'
p67
aS'http://nycbigapps.com/project/227/Voluntarily'
p68
aS'http://nycbigapps.com/project/228/HealthyOut-Find-a-Healthy-Meal-Wherever-You-Are'
p69
aS'http://nycbigapps.com/project/229/PKG-Shrink-httpwww.pkgshrink.com'
p70
aS'http://nycbigapps.com/project/230/Food-Cowboy-A-Crowdsourced-Solution-to-Hunger-in-NYC'
p71
aS'http://nycbigapps.com/project/232/Deluged'
p72
aS'http://nycbigapps.com/project/233/Green-Mind'
p73
aS'http://nycbigapps.com/project/236/WasteCheck-a-mobile-app-to-collect-waste-stream-data'
p74
aS'http://nycbigapps.com/project/237/Along-the-Way'
p75
aS'http://nycbigapps.com/project/238/SollarDollar-is-a-crowdfunding-platform-for-solar'
p76
aS'http://nycbigapps.com/project/239/Canary-Smart-Smoke-Detector'
p77
aS'http://nycbigapps.com/project/240/SolPatchRemote-monitoring-and-metering'
p78
aS'http://nycbigapps.com/project/243/Hired-In-NY-A-mobile-app-to-manage-the-job-search-process'
p79
aS'http://nycbigapps.com/project/245/Simplified-Building-Permitting'
p80
aS'http://nycbigapps.com/project/251/Poncho-A-Simpler-Weather-Service-With-A-Personality'
p81
aS'http://nycbigapps.com/project/252/Street-Pulse'
p82
aS'http://nycbigapps.com/project/261/Hanging-iFrames-Exhibitions-of-Data'
p83
aS'http://nycbigapps.com/project/264/Bulbtrip.com-The-easiest-way-to-find-the-right-LED-bulbs'
p84
aS'http://nycbigapps.com/project/268/BLDG-BLOK-on-demand-NYC-history'
p85
aS'http://nycbigapps.com/project/269/AirCasting-a-platform-for-recording-mapping-and-sharing-health-environmental-data'
p86
aS'http://nycbigapps.com/project/270/Energy-Zip'
p87
aS'http://nycbigapps.com/project/272/FaresLeft-Check-MetroCard-Balance-Online'
p88
aS'http://nycbigapps.com/project/273/TechTax'
p89
aS'http://nycbigapps.com/project/274/Filds'
p90
aS'http://nycbigapps.com/project/275/Plexx-Training-The-World'
p91
aS'http://nycbigapps.com/project/276/Roomie'
p92
aS'http://nycbigapps.com/project/277/Teen-Dating-Violence-NYC'
p93
aS'http://nycbigapps.com/project/278/ParentsTipsfor.Me-Find-Playgrounds-Easily'
p94
aS'http://nycbigapps.com/project/281/AppGen-Audit'
p95
aS'http://nycbigapps.com/project/282/University-Direct-The-SIS-Solution'
p96
aS'http://nycbigapps.com/project/283/NYC-Privately-Owned-Public-Spaces-POPS'
p97
aS'http://nycbigapps.com/project/285/Fresh-Air.-Fresh-Food'
p98
aS'http://nycbigapps.com/project/286/New-York-City-Bus'
p99
aS'http://nycbigapps.com/project/288/Eatify-Search-NYC-restaurants-view-inspection-grades-and-any-sanitation-violations'
p100
aS'http://nycbigapps.com/project/289/FiTMAPPED-Your-GPS-for-FITNESS'
p101
aS'http://nycbigapps.com/project/290/Helping-travelers-cheking-what-activities-are-available'
p102
aS'http://nycbigapps.com/project/291/Step-Out-NYC'
p103
aS'http://nycbigapps.com/project/292/Edvisers-the-only-e-mentoring-platform-integrated-with-the-citys-existing-unemployment-infrastructure'
p104
aS'http://nycbigapps.com/project/293/Cool-Vocab-SocialMooc.com'
p105
aS'http://nycbigapps.com/project/294/Perfect-Health-Responder'
p106
aS'http://nycbigapps.com/project/295/New-Eats-NY'
p107
aS'http://nycbigapps.com/project/296/Citizen-Reporter-citizens-report-to-NYC-public-data'
p108
aS'http://nycbigapps.com/project/297/A-better-nurse-hotline-with-video-and-a-quantified-self-health-data'
p109
aS'http://nycbigapps.com/project/298/Betaville-DataView'
p110
aS'http://nycbigapps.com/project/299/JobSaver'
p111
aS'http://nycbigapps.com/project/300/NYC-Day-Care-Finder-Choose-with-Confidence'
p112
aS'http://nycbigapps.com/project/302/PatientConnect-An-App-to-help-Heart-Failure-Patients-better-manage-their-disease-and-clinicians-better-manage-patients'
p113
aS'http://nycbigapps.com/project/303/Hopscotch-Coding-for-Kids'
p114
aS'http://nycbigapps.com/project/304/Car-BFF-Care-For-Your-Car-Care-For-The-Environment'
p115
aS'http://nycbigapps.com/project/305/City-Secrets'
p116
aS'http://nycbigapps.com/project/307/Realtime-updates-for-building-communities-in-NYC'
p117
aS'http://nycbigapps.com/project/308/BigDada.Me-A-Gamified-Workforce-Solution'
p118
a.